; Function Attrs: mustprogress nounwind uwtable
define internal void @_ZN3pro7details21relocation_dispatcherINS0_13allocated_ptrIN12_GLOBAL__N_19RectangleENSt3pmr21polymorphic_allocatorISt4byteEEEEEEvPS7_PKS7_(ptr nocapture noundef writeonly %0, ptr nocapture noundef %1) #6 personality ptr @__gxx_personality_v0 {
  %3 = load i64, ptr %1, align 8
  store i64 %3, ptr %0, align 8
  %4 = getelementptr inbounds i8, ptr %0, i64 8
  %5 = getelementptr inbounds i8, ptr %1, i64 8
  %6 = load ptr, ptr %5, align 8
  store ptr null, ptr %5, align 8
  store ptr %6, ptr %4, align 8
  %.val4 = load ptr, ptr %5, align 8
  %.not.i.i = icmp eq ptr %.val4, null
  br i1 %.not.i.i, label %_ZSt10destroy_atIN3pro7details13allocated_ptrIN12_GLOBAL__N_19RectangleENSt3pmr21polymorphic_allocatorISt4byteEEEEEvPT_.exit, label %7

7:                                                ; preds = %2
  %.val = load ptr, ptr %1, align 8
  %8 = load ptr, ptr %.val, align 8
  %9 = getelementptr inbounds i8, ptr %8, i64 24
  %10 = load ptr, ptr %9, align 8
  invoke void %10(ptr noundef nonnull align 8 dereferenceable(8) %.val, ptr noundef nonnull %.val4, i64 noundef 16, i64 noundef 8)
          to label %_ZSt10destroy_atIN3pro7details13allocated_ptrIN12_GLOBAL__N_19RectangleENSt3pmr21polymorphic_allocatorISt4byteEEEEEvPT_.exit unwind label %11

11:                                               ; preds = %7
  %12 = landingpad { ptr, i32 }
          catch ptr null
  %13 = extractvalue { ptr, i32 } %12, 0
  tail call void @__clang_call_terminate(ptr %13) #28
  unreachable

_ZSt10destroy_atIN3pro7details13allocated_ptrIN12_GLOBAL__N_19RectangleENSt3pmr21polymorphic_allocatorISt4byteEEEEEvPT_.exit: ; preds = %2, %7
  ret void
}